Certificate:
    Data:
        Version: 3 (0x2)
        Serial Number:
            0c:c8:9d:e2:fe:88:60:85:8d:12:31:83:08:9d:e9:af
        Signature Algorithm: sha256WithRSAEncryption
        Issuer: CN=Site-Primaire-CA
        Validity
            Not Before: May 27 15:39:30 2026 GMT
            Not After : Aug 29 15:39:30 2028 GMT
        Subject: CN=server
        Subject Public Key Info:
            Public Key Algorithm: rsaEncryption
                Public-Key: (2048 bit)
                Modulus:
                    00:c2:23:31:82:21:12:b4:12:ad:17:e2:af:51:4b:
                    1d:1f:d9:63:41:5d:15:14:3f:ef:e3:2c:7e:f8:87:
                    0f:36:12:84:cc:c0:5e:c1:be:86:f4:22:bc:27:c5:
                    87:17:c2:9e:d8:95:1f:a4:21:2b:14:5f:cb:9b:d4:
                    13:71:8f:a9:1b:50:ab:c3:37:4a:96:34:49:db:af:
                    60:14:67:4b:63:45:7b:d5:ff:d3:e0:65:10:06:90:
                    e4:d1:fc:ac:f3:76:c5:d0:91:60:97:00:cc:8e:20:
                    38:55:9f:18:05:b4:ca:20:75:3f:3f:70:1d:79:6c:
                    48:69:9d:71:35:d0:12:17:c5:b7:4a:fe:12:4f:b2:
                    38:03:d7:a9:96:cb:de:48:1d:85:0c:ef:6c:2d:cd:
                    82:02:68:ad:4c:71:17:71:11:f1:ff:2c:ed:5f:6b:
                    eb:d6:6b:83:b7:e7:7d:03:8d:c6:c1:05:97:ff:50:
                    f0:24:f0:1a:de:29:a5:6b:f3:16:16:10:fc:01:95:
                    55:a5:8a:8b:ce:8c:2a:d0:18:84:fa:c9:2e:8d:a6:
                    9a:f3:71:5d:03:19:cb:d7:98:b4:17:30:e7:7c:3e:
                    02:05:c2:c6:d5:e6:6f:51:09:a7:7b:bf:f0:3b:d0:
                    e6:35:11:dd:ed:10:26:66:a3:c3:4f:40:6b:7c:09:
                    2c:2d
                Exponent: 65537 (0x10001)
        X509v3 extensions:
            X509v3 Basic Constraints: 
                CA:FALSE
            X509v3 Subject Key Identifier: 
                30:26:9E:F7:0E:7F:C1:23:78:99:2C:88:D3:2B:45:3F:08:B5:7C:9B
            X509v3 Authority Key Identifier: 
                keyid:0A:33:67:DA:43:08:C1:FC:A3:A6:E2:A4:46:EF:0F:F3:AE:11:8F:23
                DirName:/CN=Site-Primaire-CA
                serial:1E:47:4E:BB:4F:A8:42:BC:34:E0:E1:E5:AC:8E:DA:84:23:E2:E5:33
            X509v3 Extended Key Usage: 
                TLS Web Server Authentication
            X509v3 Key Usage: 
                Digital Signature, Key Encipherment
    Signature Algorithm: sha256WithRSAEncryption
    Signature Value:
        8a:71:33:61:bf:61:58:b2:15:be:c6:54:8f:3a:80:43:16:9c:
        19:80:e3:dd:9b:8d:e9:f5:25:3f:55:eb:5e:bd:7b:d1:15:fa:
        65:32:73:03:91:e0:30:03:5f:8b:9f:5d:14:f8:2e:d2:1b:b6:
        10:25:1c:4c:17:80:32:91:b6:01:d1:30:37:ae:68:5b:81:42:
        6e:97:ac:8c:f2:fe:89:60:10:ca:52:f4:3a:ac:70:8e:c9:fa:
        29:64:bc:27:7d:b4:37:c3:0f:29:6f:52:e3:89:32:24:4b:36:
        fd:b5:5c:ad:49:3b:b3:e9:92:95:87:97:ba:b1:c1:02:7c:98:
        94:d6:10:7a:22:05:b5:0c:15:2b:9a:28:92:3a:24:09:76:df:
        0b:5f:04:d4:60:4a:6a:1f:f0:e7:5e:01:b3:2d:95:26:46:24:
        8b:f5:d1:0d:9c:e2:35:91:6b:f6:40:d0:bf:1e:bd:3a:36:df:
        84:db:94:81:73:20:70:e0:d1:23:38:e5:69:d8:e6:58:a5:c6:
        ce:20:98:1a:2e:ef:f9:84:c8:53:9a:83:39:2d:ca:cb:8c:5d:
        ec:0e:cc:34:1b:27:11:c8:6d:1c:3b:6b:30:58:10:9f:99:c9:
        1f:d6:33:b3:4d:2b:80:7d:b8:a3:83:d6:13:4e:4e:86:d6:a1:
        62:3e:c4:9e
-----BEGIN CERTIFICATE-----
MIIDXjCCAkagAwIBAgIQDMid4v6IYIWNEjGDCJ3przANBgkqhkiG9w0BAQsFADAb
MRkwFwYDVQQDDBBTaXRlLVByaW1haXJlLUNBMB4XDTI2MDUyNzE1MzkzMFoXDTI4
MDgyOTE1MzkzMFowETEPMA0GA1UEAwwGc2VydmVyMIIBIjANBgkqhkiG9w0BAQEF
AAOCAQ8AMIIBCgKCAQEAwiMxgiEStBKtF+KvUUsdH9ljQV0VFD/v4yx++IcPNhKE
zMBewb6G9CK8J8WHF8Ke2JUfpCErFF/Lm9QTcY+pG1CrwzdKljRJ269gFGdLY0V7
1f/T4GUQBpDk0fys83bF0JFglwDMjiA4VZ8YBbTKIHU/P3AdeWxIaZ1xNdASF8W3
Sv4ST7I4A9eplsveSB2FDO9sLc2CAmitTHEXcRHx/yztX2vr1muDt+d9A43GwQWX
/1DwJPAa3imla/MWFhD8AZVVpYqLzowq0BiE+skujaaa83FdAxnL15i0FzDnfD4C
BcLG1eZvUQmne7/wO9DmNRHd7RAmZqPDT0BrfAksLQIDAQABo4GnMIGkMAkGA1Ud
EwQCMAAwHQYDVR0OBBYEFDAmnvcOf8EjeJksiNMrRT8ItXybMFYGA1UdIwRPME2A
FAozZ9pDCMH8o6bipEbvD/OuEY8joR+kHTAbMRkwFwYDVQQDDBBTaXRlLVByaW1h
aXJlLUNBghQeR067T6hCvDTg4eWsjtqEI+LlMzATBgNVHSUEDDAKBggrBgEFBQcD
ATALBgNVHQ8EBAMCBaAwDQYJKoZIhvcNAQELBQADggEBAIpxM2G/YViyFb7GVI86
gEMWnBmA492bjen1JT9V6169e9EV+mUycwOR4DADX4ufXRT4LtIbthAlHEwXgDKR
tgHRMDeuaFuBQm6XrIzy/olgEMpS9DqscI7J+ilkvCd9tDfDDylvUuOJMiRLNv21
XK1JO7PpkpWHl7qxwQJ8mJTWEHoiBbUMFSuaKJI6JAl23wtfBNRgSmof8OdeAbMt
lSZGJIv10Q2c4jWRa/ZA0L8evTo234TblIFzIHDg0SM45WnY5lilxs4gmBou7/mE
yFOagzktysuMXewOzDQbJxHIbRw7azBYEJ+ZyR/WM7NNK4B9uKOD1hNOTobWoWI+
xJ4=
-----END CERTIFICATE-----
